target datalayout = "e-m:e-p270:32:32-p271:32:32-p272:64:64-i64:64-i128:128-f80:128-n8:16:32:64-S128"
target triple = "x86_64-pc-linux-gnu"

%"class.std::__cxx11::basic_string.5" = type { %"struct.std::__cxx11::basic_string<unsigned short, base::string16_char_traits>::_Alloc_hider", i64, %union.anon.9 }
%"struct.std::__cxx11::basic_string<unsigned short, base::string16_char_traits>::_Alloc_hider" = type { ptr }
%union.anon.9 = type { i64, [8 x i8] }

; Function Attrs: mustprogress nounwind uwtable
define linkonce_odr noundef ptr @_ZNSt19__ptr_traits_ptr_toIPKtS0_Lb0EE10pointer_toERS0_(ptr noundef nonnull align 2 dereferenceable(2) %0) #1 comdat align 2 {
  %2 = alloca ptr, align 8
  store ptr %0, ptr %2, align 8, !tbaa !14
  %3 = load ptr, ptr %2, align 8, !tbaa !14
  ret ptr %3
}

; Function Attrs: mustprogress nounwind uwtable
define available_externally noundef ptr @_ZNKSt7__cxx1112basic_stringItN4base20string16_char_traitsESaItEE13_M_local_dataEv(ptr noundef nonnull align 8 dereferenceable(32) %0) #1 align 2 {
  %2 = alloca ptr, align 8
  store ptr %0, ptr %2, align 8, !tbaa !23
  %3 = load ptr, ptr %2, align 8
  %4 = getelementptr inbounds nuw %"class.std::__cxx11::basic_string.5", ptr %3, i32 0, i32 2
  %5 = getelementptr inbounds [8 x i16], ptr %4, i64 0, i64 0
  %6 = call noundef ptr @_ZNSt19__ptr_traits_ptr_toIPKtS0_Lb0EE10pointer_toERS0_(ptr noundef nonnull align 2 dereferenceable(2) %5) #6
  ret ptr %6
}

; Function Attrs: mustprogress nounwind uwtable
define available_externally void @_ZNSt7__cxx1112basic_stringItN4base20string16_char_traitsESaItEE9_M_lengthEm(ptr noundef nonnull align 8 dereferenceable(32) %0, i64 noundef %1) #1 align 2 {
  %3 = alloca ptr, align 8
  %4 = alloca i64, align 8
  store ptr %0, ptr %3, align 8, !tbaa !23
  store i64 %1, ptr %4, align 8, !tbaa !8
  %5 = load ptr, ptr %3, align 8
  %6 = load i64, ptr %4, align 8, !tbaa !8
  %7 = getelementptr inbounds nuw %"class.std::__cxx11::basic_string.5", ptr %5, i32 0, i32 1
  store i64 %6, ptr %7, align 8, !tbaa !32
  ret void
}

; Function Attrs: noinline noreturn nounwind uwtable
define linkonce_odr hidden void @__clang_call_terminate(ptr noundef %0) #5 comdat {
  %2 = call ptr @__cxa_begin_catch(ptr %0) #6
  call void @_ZSt9terminatev() #7
  unreachable
}

; Function Attrs: mustprogress uwtable
define available_externally noundef zeroext i1 @_ZNKSt7__cxx1112basic_stringItN4base20string16_char_traitsESaItEE11_M_is_localEv(ptr noundef nonnull align 8 dereferenceable(32) %0) #0 align 2 {
  %2 = alloca i1, align 1
  %3 = alloca ptr, align 8
  store ptr %0, ptr %3, align 8, !tbaa !23
  %4 = load ptr, ptr %3, align 8
  %5 = call noundef ptr @_ZNKSt7__cxx1112basic_stringItN4base20string16_char_traitsESaItEE7_M_dataEv(ptr noundef nonnull align 8 dereferenceable(32) %4)
  %6 = call noundef ptr @_ZNKSt7__cxx1112basic_stringItN4base20string16_char_traitsESaItEE13_M_local_dataEv(ptr noundef nonnull align 8 dereferenceable(32) %4)
  %7 = icmp eq ptr %5, %6
  br i1 %7, label %8, label %14

8:                                                ; preds = %1
  %9 = getelementptr inbounds nuw %"class.std::__cxx11::basic_string.5", ptr %4, i32 0, i32 1
  %10 = load i64, ptr %9, align 8, !tbaa !32
  %11 = icmp ugt i64 %10, 7
  br i1 %11, label %12, label %13

12:                                               ; preds = %8
  unreachable

13:                                               ; preds = %8
  store i1 true, ptr %2, align 1
  br label %15

14:                                               ; preds = %1
  store i1 false, ptr %2, align 1
  br label %15

15:                                               ; preds = %14, %13
  %16 = load i1, ptr %2, align 1
  ret i1 %16
}

; Function Attrs: mustprogress uwtable
define available_externally void @_ZNSt7__cxx1112basic_stringItN4base20string16_char_traitsESaItEE13_M_set_lengthEm(ptr noundef nonnull align 8 dereferenceable(32) %0, i64 noundef %1) #0 align 2 {
  %3 = alloca ptr, align 8
  %4 = alloca i64, align 8
  %5 = alloca i16, align 2
  store ptr %0, ptr %3, align 8, !tbaa !23
  store i64 %1, ptr %4, align 8, !tbaa !8
  %6 = load ptr, ptr %3, align 8
  %7 = load i64, ptr %4, align 8, !tbaa !8
  call void @_ZNSt7__cxx1112basic_stringItN4base20string16_char_traitsESaItEE9_M_lengthEm(ptr noundef nonnull align 8 dereferenceable(32) %6, i64 noundef %7)
  %8 = call noundef ptr @_ZNKSt7__cxx1112basic_stringItN4base20string16_char_traitsESaItEE7_M_dataEv(ptr noundef nonnull align 8 dereferenceable(32) %6)
  %9 = load i64, ptr %4, align 8, !tbaa !8
  %10 = getelementptr inbounds nuw i16, ptr %8, i64 %9
  call void @llvm.lifetime.start.p0(i64 2, ptr %5) #6
  store i16 0, ptr %5, align 2, !tbaa !16
  call void @_ZN4base20string16_char_traits6assignERtRKt(ptr noundef nonnull align 2 dereferenceable(2) %10, ptr noundef nonnull align 2 dereferenceable(2) %5)
  call void @llvm.lifetime.end.p0(i64 2, ptr %5) #6
  ret void
}

; Function Attrs: mustprogress nounwind uwtable
define linkonce_odr void @_ZN4base20string16_char_traits6assignERtRKt(ptr noundef nonnull align 2 dereferenceable(2) %0, ptr noundef nonnull align 2 dereferenceable(2) %1) #1 comdat align 2 {
  %3 = alloca ptr, align 8
  %4 = alloca ptr, align 8
  store ptr %0, ptr %3, align 8, !tbaa !14
  store ptr %1, ptr %4, align 8, !tbaa !14
  %5 = load ptr, ptr %4, align 8, !tbaa !14
  %6 = load i16, ptr %5, align 2, !tbaa !16
  %7 = load ptr, ptr %3, align 8, !tbaa !14
  store i16 %6, ptr %7, align 2, !tbaa !16
  ret void
}

; Function Attrs: mustprogress nounwind uwtable
define available_externally noundef ptr @_ZNKSt7__cxx1112basic_stringItN4base20string16_char_traitsESaItEE7_M_dataEv(ptr noundef nonnull align 8 dereferenceable(32) %0) #1 align 2 {
  %2 = alloca ptr, align 8
  store ptr %0, ptr %2, align 8, !tbaa !23
  %3 = load ptr, ptr %2, align 8
  %4 = getelementptr inbounds nuw %"class.std::__cxx11::basic_string.5", ptr %3, i32 0, i32 0
  %5 = getelementptr inbounds nuw %"struct.std::__cxx11::basic_string<unsigned short, base::string16_char_traits>::_Alloc_hider", ptr %4, i32 0, i32 0
  %6 = load ptr, ptr %5, align 8, !tbaa !36
  ret ptr %6
}

; Function Attrs: mustprogress nounwind uwtable
define available_externally noundef i64 @_ZNKSt7__cxx1112basic_stringItN4base20string16_char_traitsESaItEE8capacityEv(ptr noundef nonnull align 8 dereferenceable(32) %0) #1 align 2 personality ptr @__gxx_personality_v0 {
  %2 = alloca ptr, align 8
  store ptr %0, ptr %2, align 8, !tbaa !23
  %3 = load ptr, ptr %2, align 8
  %4 = invoke noundef zeroext i1 @_ZNKSt7__cxx1112basic_stringItN4base20string16_char_traitsESaItEE11_M_is_localEv(ptr noundef nonnull align 8 dereferenceable(32) %3)
          to label %5 unwind label %12

5:                                                ; preds = %1
  br i1 %4, label %6, label %7

6:                                                ; preds = %5
  br label %10

7:                                                ; preds = %5
  %8 = getelementptr inbounds nuw %"class.std::__cxx11::basic_string.5", ptr %3, i32 0, i32 2
  %9 = load i64, ptr %8, align 8, !tbaa !22
  br label %10

10:                                               ; preds = %7, %6
  %11 = phi i64 [ 7, %6 ], [ %9, %7 ]
  ret i64 %11

12:                                               ; preds = %1
  %13 = landingpad { ptr, i32 }
          catch ptr null
  %14 = extractvalue { ptr, i32 } %13, 0
  call void @__clang_call_terminate(ptr %14) #7
  unreachable
}

; Function Attrs: mustprogress nounwind uwtable
define available_externally noundef i64 @_ZNKSt7__cxx1112basic_stringItN4base20string16_char_traitsESaItEE4sizeEv(ptr noundef nonnull align 8 dereferenceable(32) %0) #1 align 2 {
  %2 = alloca ptr, align 8
  store ptr %0, ptr %2, align 8, !tbaa !23
  %3 = load ptr, ptr %2, align 8
  %4 = getelementptr inbounds nuw %"class.std::__cxx11::basic_string.5", ptr %3, i32 0, i32 1
  %5 = load i64, ptr %4, align 8, !tbaa !32
  ret i64 %5
}

; Function Attrs: mustprogress nounwind uwtable
define available_externally noundef nonnull align 2 dereferenceable(2) ptr @_ZNSt7__cxx1112basic_stringItN4base20string16_char_traitsESaItEEixEm(ptr noundef nonnull align 8 dereferenceable(32) %0, i64 noundef %1) #1 align 2 {
  %3 = alloca ptr, align 8
  %4 = alloca i64, align 8
  store ptr %0, ptr %3, align 8, !tbaa !23
  store i64 %1, ptr %4, align 8, !tbaa !8
  %5 = load ptr, ptr %3, align 8
  br label %6

6:                                                ; preds = %2
  br label %7

7:                                                ; preds = %6
  %8 = call noundef ptr @_ZNKSt7__cxx1112basic_stringItN4base20string16_char_traitsESaItEE7_M_dataEv(ptr noundef nonnull align 8 dereferenceable(32) %5)
  %9 = load i64, ptr %4, align 8, !tbaa !8
  %10 = getelementptr inbounds nuw i16, ptr %8, i64 %9
  ret ptr %10
}

; Function Attrs: mustprogress uwtable
define available_externally void @_ZNSt7__cxx1112basic_stringItN4base20string16_char_traitsESaItEE6resizeEm(ptr noundef nonnull align 8 dereferenceable(32) %0, i64 noundef %1) #0 align 2 {
  %3 = alloca ptr, align 8
  %4 = alloca i64, align 8
  store ptr %0, ptr %3, align 8, !tbaa !23
  store i64 %1, ptr %4, align 8, !tbaa !8
  %5 = load ptr, ptr %3, align 8
  %6 = load i64, ptr %4, align 8, !tbaa !8
  call void @_ZNSt7__cxx1112basic_stringItN4base20string16_char_traitsESaItEE6resizeEmt(ptr noundef nonnull align 8 dereferenceable(32) %5, i64 noundef %6, i16 noundef zeroext 0)
  ret void
}

; Function Attrs: mustprogress nounwind uwtable
define available_externally noundef i64 @_ZNKSt7__cxx1112basic_stringItN4base20string16_char_traitsESaItEE6lengthEv(ptr noundef nonnull align 8 dereferenceable(32) %0) #1 align 2 {
  %2 = alloca ptr, align 8
  store ptr %0, ptr %2, align 8, !tbaa !23
  %3 = load ptr, ptr %2, align 8
  %4 = getelementptr inbounds nuw %"class.std::__cxx11::basic_string.5", ptr %3, i32 0, i32 1
  %5 = load i64, ptr %4, align 8, !tbaa !32
  ret i64 %5
}

; Function Attrs: mustprogress uwtable
define available_externally void @_ZNSt7__cxx1112basic_stringItN4base20string16_char_traitsESaItEE9push_backEt(ptr noundef nonnull align 8 dereferenceable(32) %0, i16 noundef zeroext %1) #0 align 2 {
  %3 = alloca ptr, align 8
  %4 = alloca i16, align 2
  %5 = alloca i64, align 8
  store ptr %0, ptr %3, align 8, !tbaa !23
  store i16 %1, ptr %4, align 2, !tbaa !16
  %6 = load ptr, ptr %3, align 8
  call void @llvm.lifetime.start.p0(i64 8, ptr %5) #6
  %7 = call noundef i64 @_ZNKSt7__cxx1112basic_stringItN4base20string16_char_traitsESaItEE4sizeEv(ptr noundef nonnull align 8 dereferenceable(32) %6) #6
  store i64 %7, ptr %5, align 8, !tbaa !8
  %8 = load i64, ptr %5, align 8, !tbaa !8
  %9 = add i64 %8, 1
  %10 = call noundef i64 @_ZNKSt7__cxx1112basic_stringItN4base20string16_char_traitsESaItEE8capacityEv(ptr noundef nonnull align 8 dereferenceable(32) %6) #6
  %11 = icmp ugt i64 %9, %10
  br i1 %11, label %12, label %14

12:                                               ; preds = %2
  %13 = load i64, ptr %5, align 8, !tbaa !8
  call void @_ZNSt7__cxx1112basic_stringItN4base20string16_char_traitsESaItEE9_M_mutateEmmPKtm(ptr noundef nonnull align 8 dereferenceable(32) %6, i64 noundef %13, i64 noundef 0, ptr noundef null, i64 noundef 1)
  br label %14

14:                                               ; preds = %12, %2
  %15 = call noundef ptr @_ZNKSt7__cxx1112basic_stringItN4base20string16_char_traitsESaItEE7_M_dataEv(ptr noundef nonnull align 8 dereferenceable(32) %6)
  %16 = load i64, ptr %5, align 8, !tbaa !8
  %17 = getelementptr inbounds nuw i16, ptr %15, i64 %16
  call void @_ZN4base20string16_char_traits6assignERtRKt(ptr noundef nonnull align 2 dereferenceable(2) %17, ptr noundef nonnull align 2 dereferenceable(2) %4)
  %18 = load i64, ptr %5, align 8, !tbaa !8
  %19 = add i64 %18, 1
  call void @_ZNSt7__cxx1112basic_stringItN4base20string16_char_traitsESaItEE13_M_set_lengthEm(ptr noundef nonnull align 8 dereferenceable(32) %6, i64 noundef %19)
  call void @llvm.lifetime.end.p0(i64 8, ptr %5) #6
  ret void
}

; Function Attrs: mustprogress uwtable
define noundef i64 @_ZN4base21WriteUnicodeCharacterEjPNSt7__cxx1112basic_stringItNS_20string16_char_traitsESaItEEE(i32 noundef %0, ptr noundef %1) #0 {
  %3 = alloca i64, align 8
  %4 = alloca i32, align 4
  %5 = alloca ptr, align 8
  %6 = alloca i64, align 8
  store i32 %0, ptr %4, align 4, !tbaa !25
  store ptr %1, ptr %5, align 8, !tbaa !23
  %7 = load i32, ptr %4, align 4, !tbaa !25
  %8 = icmp ule i32 %7, 65535
  %9 = select i1 %8, i32 1, i32 2
  %10 = icmp eq i32 %9, 1
  br i1 %10, label %11, label %15

11:                                               ; preds = %2
  %12 = load ptr, ptr %5, align 8, !tbaa !23
  %13 = load i32, ptr %4, align 4, !tbaa !25
  %14 = trunc i32 %13 to i16
  call void @_ZNSt7__cxx1112basic_stringItN4base20string16_char_traitsESaItEE9push_backEt(ptr noundef nonnull align 8 dereferenceable(32) %12, i16 noundef zeroext %14)
  store i64 1, ptr %3, align 8
  br label %51

15:                                               ; preds = %2
  call void @llvm.lifetime.start.p0(i64 8, ptr %6) #6
  %16 = load ptr, ptr %5, align 8, !tbaa !23
  %17 = call noundef i64 @_ZNKSt7__cxx1112basic_stringItN4base20string16_char_traitsESaItEE6lengthEv(ptr noundef nonnull align 8 dereferenceable(32) %16) #6
  store i64 %17, ptr %6, align 8, !tbaa !8
  %18 = load ptr, ptr %5, align 8, !tbaa !23
  %19 = load i64, ptr %6, align 8, !tbaa !8
  %20 = add i64 %19, 2
  call void @_ZNSt7__cxx1112basic_stringItN4base20string16_char_traitsESaItEE6resizeEm(ptr noundef nonnull align 8 dereferenceable(32) %18, i64 noundef %20)
  %21 = load i32, ptr %4, align 4, !tbaa !25
  %22 = icmp ule i32 %21, 65535
  br i1 %22, label %23, label %31

23:                                               ; preds = %15
  %24 = load i32, ptr %4, align 4, !tbaa !25
  %25 = trunc i32 %24 to i16
  %26 = load ptr, ptr %5, align 8, !tbaa !23
  %27 = call noundef nonnull align 2 dereferenceable(2) ptr @_ZNSt7__cxx1112basic_stringItN4base20string16_char_traitsESaItEEixEm(ptr noundef nonnull align 8 dereferenceable(32) %26, i64 noundef 0)
  %28 = load i64, ptr %6, align 8, !tbaa !8
  %29 = add i64 %28, 1
  store i64 %29, ptr %6, align 8, !tbaa !8
  %30 = getelementptr inbounds nuw i16, ptr %27, i64 %28
  store i16 %25, ptr %30, align 2, !tbaa !16
  br label %50

31:                                               ; preds = %15
  %32 = load i32, ptr %4, align 4, !tbaa !25
  %33 = lshr i32 %32, 10
  %34 = add i32 %33, 55232
  %35 = trunc i32 %34 to i16
  %36 = load ptr, ptr %5, align 8, !tbaa !23
  %37 = call noundef nonnull align 2 dereferenceable(2) ptr @_ZNSt7__cxx1112basic_stringItN4base20string16_char_traitsESaItEEixEm(ptr noundef nonnull align 8 dereferenceable(32) %36, i64 noundef 0)
  %38 = load i64, ptr %6, align 8, !tbaa !8
  %39 = add i64 %38, 1
  store i64 %39, ptr %6, align 8, !tbaa !8
  %40 = getelementptr inbounds nuw i16, ptr %37, i64 %38
  store i16 %35, ptr %40, align 2, !tbaa !16
  %41 = load i32, ptr %4, align 4, !tbaa !25
  %42 = and i32 %41, 1023
  %43 = or i32 %42, 56320
  %44 = trunc i32 %43 to i16
  %45 = load ptr, ptr %5, align 8, !tbaa !23
  %46 = call noundef nonnull align 2 dereferenceable(2) ptr @_ZNSt7__cxx1112basic_stringItN4base20string16_char_traitsESaItEEixEm(ptr noundef nonnull align 8 dereferenceable(32) %45, i64 noundef 0)
  %47 = load i64, ptr %6, align 8, !tbaa !8
  %48 = add i64 %47, 1
  store i64 %48, ptr %6, align 8, !tbaa !8
  %49 = getelementptr inbounds nuw i16, ptr %46, i64 %47
  store i16 %44, ptr %49, align 2, !tbaa !16
  br label %50

50:                                               ; preds = %31, %23
  store i64 2, ptr %3, align 8
  call void @llvm.lifetime.end.p0(i64 8, ptr %6) #6
  br label %51

51:                                               ; preds = %50, %11
  %52 = load i64, ptr %3, align 8
  ret i64 %52
}