; Function Attrs: mustprogress uwtable
define noundef range(i64 1, 3) i64 @_ZN4base21WriteUnicodeCharacterEjPNSt7__cxx1112basic_stringItNS_20string16_char_traitsESaItEEE(i32 noundef %0, ptr noundef %1) local_unnamed_addr #0 personality ptr @__gxx_personality_v0 {
  %3 = icmp ult i32 %0, 65536
  br i1 %3, label %4, label %21

4:                                                ; preds = %2
  %5 = trunc nuw i32 %0 to i16
  %6 = getelementptr inbounds nuw i8, ptr %1, i64 8
  %7 = load i64, ptr %6, align 8, !tbaa !22
  %8 = add i64 %7, 1
  %9 = load ptr, ptr %1, align 8, !tbaa !26
  %10 = getelementptr inbounds nuw i8, ptr %1, i64 16
  %11 = icmp eq ptr %9, %10
  br i1 %11, label %12, label %_ZNKSt7__cxx1112basic_stringItN4base20string16_char_traitsESaItEE8capacityEv.exit.i

12:                                               ; preds = %4
  %13 = icmp ult i64 %7, 8
  tail call void @llvm.assume(i1 %13)
  br label %_ZNKSt7__cxx1112basic_stringItN4base20string16_char_traitsESaItEE8capacityEv.exit.i

_ZNKSt7__cxx1112basic_stringItN4base20string16_char_traitsESaItEE8capacityEv.exit.i: ; preds = %12, %4
  %14 = load i64, ptr %10, align 8
  %15 = select i1 %11, i64 7, i64 %14
  %16 = icmp ugt i64 %8, %15
  br i1 %16, label %17, label %_ZNSt7__cxx1112basic_stringItN4base20string16_char_traitsESaItEE9push_backEt.exit

17:                                               ; preds = %_ZNKSt7__cxx1112basic_stringItN4base20string16_char_traitsESaItEE8capacityEv.exit.i
  tail call void @_ZNSt7__cxx1112basic_stringItN4base20string16_char_traitsESaItEE9_M_mutateEmmPKtm(ptr noundef nonnull align 8 dereferenceable(32) %1, i64 noundef %7, i64 noundef 0, ptr noundef null, i64 noundef 1)
  %.pre.i = load ptr, ptr %1, align 8, !tbaa !26
  br label %_ZNSt7__cxx1112basic_stringItN4base20string16_char_traitsESaItEE9push_backEt.exit

_ZNSt7__cxx1112basic_stringItN4base20string16_char_traitsESaItEE9push_backEt.exit: ; preds = %_ZNKSt7__cxx1112basic_stringItN4base20string16_char_traitsESaItEE8capacityEv.exit.i, %17
  %18 = phi ptr [ %.pre.i, %17 ], [ %9, %_ZNKSt7__cxx1112basic_stringItN4base20string16_char_traitsESaItEE8capacityEv.exit.i ]
  %19 = getelementptr inbounds nuw i16, ptr %18, i64 %7
  store i16 %5, ptr %19, align 2, !tbaa !15
  store i64 %8, ptr %6, align 8, !tbaa !22
  %20 = getelementptr inbounds nuw i16, ptr %18, i64 %8
  store i16 0, ptr %20, align 2, !tbaa !15
  br label %34

21:                                               ; preds = %2
  %22 = getelementptr inbounds nuw i8, ptr %1, i64 8
  %23 = load i64, ptr %22, align 8, !tbaa !22
  %24 = add i64 %23, 2
  tail call void @_ZNSt7__cxx1112basic_stringItN4base20string16_char_traitsESaItEE6resizeEmt(ptr noundef nonnull align 8 dereferenceable(32) %1, i64 noundef %24, i16 noundef zeroext 0)
  %25 = lshr i32 %0, 10
  %26 = trunc i32 %25 to i16
  %27 = add i16 %26, -10304
  %28 = load ptr, ptr %1, align 8, !tbaa !26
  %29 = getelementptr inbounds nuw i16, ptr %28, i64 %23
  store i16 %27, ptr %29, align 2, !tbaa !15
  %30 = trunc i32 %0 to i16
  %31 = and i16 %30, 1023
  %32 = or disjoint i16 %31, -9216
  %33 = getelementptr i8, ptr %29, i64 2
  store i16 %32, ptr %33, align 2, !tbaa !15
  br label %34

34:                                               ; preds = %21, %_ZNSt7__cxx1112basic_stringItN4base20string16_char_traitsESaItEE9push_backEt.exit
  %.0 = phi i64 [ 1, %_ZNSt7__cxx1112basic_stringItN4base20string16_char_traitsESaItEE9push_backEt.exit ], [ 2, %21 ]
  ret i64 %.0
}